target datalayout = "e-m:e-p270:32:32-p271:32:32-p272:64:64-i64:64-i128:128-f80:128-n8:16:32:64-S128"
target triple = "x86_64-pc-linux-gnu"

%"class.std::__cxx11::basic_string" = type { %"struct.std::__cxx11::basic_string<char>::_Alloc_hider", i64, %union.anon }
%"struct.std::__cxx11::basic_string<char>::_Alloc_hider" = type { ptr }
%union.anon = type { i64, [8 x i8] }

@.str = private unnamed_addr constant [79 x i8] c"HAL implementation normHamming8u ==> hal_ni_normHamming8u returned %d (0x%08x)\00", align 1
@__func__._ZN2cv3hal11normHammingEPKhii = private unnamed_addr constant [12 x i8] c"normHamming\00", align 1
@.str.1 = private unnamed_addr constant [117 x i8] c"generated/home/dtcxzyw/WorkSpace/Projects/compilers/llvm-opt-benchmark/bench/opencv/opencv/modules/core/src/norm.cpp\00", align 1

; Function Attrs: mustprogress nounwind uwtable
define linkonce_odr hidden noundef i32 @_Z20hal_ni_normHamming8uPKhiiPi(ptr noundef %0, i32 noundef %1, i32 noundef %2, ptr noundef %3) #1 comdat {
  %5 = alloca ptr, align 8
  %6 = alloca i32, align 4
  %7 = alloca i32, align 4
  %8 = alloca ptr, align 8
  store ptr %0, ptr %5, align 8
  store i32 %1, ptr %6, align 4
  store i32 %2, ptr %7, align 4
  store ptr %3, ptr %8, align 8
  ret i32 1
}

; Function Attrs: mustprogress uwtable
define noundef i32 @_ZN2cv3hal11normHammingEPKhii(ptr noundef %0, i32 noundef %1, i32 noundef %2) #0 personality ptr @__gxx_personality_v0 {
  %4 = alloca i32, align 4
  %5 = alloca ptr, align 8
  %6 = alloca i32, align 4
  %7 = alloca i32, align 4
  %8 = alloca i32, align 4
  %9 = alloca i32, align 4
  %10 = alloca %"class.std::__cxx11::basic_string", align 8
  %11 = alloca ptr, align 8
  %12 = alloca i32, align 4
  %13 = alloca ptr, align 8
  %14 = alloca i32, align 4
  %15 = alloca i32, align 4
  store ptr %0, ptr %5, align 8
  store i32 %1, ptr %6, align 4
  store i32 %2, ptr %7, align 4
  %16 = load ptr, ptr %5, align 8
  %17 = load i32, ptr %6, align 4
  %18 = load i32, ptr %7, align 4
  %19 = call noundef i32 @_Z20hal_ni_normHamming8uPKhiiPi(ptr noundef %16, i32 noundef %17, i32 noundef %18, ptr noundef %8)
  store i32 %19, ptr %9, align 4
  %20 = load i32, ptr %9, align 4
  %21 = icmp eq i32 %20, 0
  br i1 %21, label %22, label %24

22:                                               ; preds = %3
  %23 = load i32, ptr %8, align 4
  store i32 %23, ptr %4, align 4
  br label %76

24:                                               ; preds = %3
  %25 = load i32, ptr %9, align 4
  %26 = icmp ne i32 %25, 1
  br i1 %26, label %27, label %35

27:                                               ; preds = %24
  %28 = load i32, ptr %9, align 4
  %29 = load i32, ptr %9, align 4
  call void (ptr, ptr, ...) @_ZN2cv6formatB5cxx11EPKcz(ptr dead_on_unwind writable sret(%"class.std::__cxx11::basic_string") align 8 %10, ptr noundef @.str, i32 noundef %28, i32 noundef %29)
  invoke void @_ZN2cv5errorEiRKNSt7__cxx1112basic_stringIcSt11char_traitsIcESaIcEEEPKcS9_i(i32 noundef -3, ptr noundef nonnull align 8 dereferenceable(32) %10, ptr noundef @__func__._ZN2cv3hal11normHammingEPKhii, ptr noundef @.str.1, i32 noundef 56) #10
          to label %30 unwind label %31

30:                                               ; preds = %27
  unreachable

31:                                               ; preds = %27
  %32 = landingpad { ptr, i32 }
          cleanup
  %33 = extractvalue { ptr, i32 } %32, 0
  store ptr %33, ptr %11, align 8
  %34 = extractvalue { ptr, i32 } %32, 1
  store i32 %34, ptr %12, align 4
  call void @_ZNSt7__cxx1112basic_stringIcSt11char_traitsIcESaIcEED1Ev(ptr noundef nonnull align 8 dereferenceable(32) %10) #11
  br label %78

35:                                               ; preds = %24
  br label %36

36:                                               ; preds = %35
  %37 = load i32, ptr %7, align 4
  %38 = icmp eq i32 %37, 1
  br i1 %38, label %39, label %43

39:                                               ; preds = %36
  %40 = load ptr, ptr %5, align 8
  %41 = load i32, ptr %6, align 4
  %42 = call noundef i32 @_ZN2cv3hal11normHammingEPKhi(ptr noundef %40, i32 noundef %41)
  store i32 %42, ptr %4, align 4
  br label %76

43:                                               ; preds = %36
  store ptr null, ptr %13, align 8
  %44 = load i32, ptr %7, align 4
  %45 = icmp eq i32 %44, 2
  br i1 %45, label %46, label %47

46:                                               ; preds = %43
  store ptr @_ZN2cv3halL14popCountTable2E, ptr %13, align 8
  br label %53

47:                                               ; preds = %43
  %48 = load i32, ptr %7, align 4
  %49 = icmp eq i32 %48, 4
  br i1 %49, label %50, label %51

50:                                               ; preds = %47
  store ptr @_ZN2cv3halL14popCountTable4E, ptr %13, align 8
  br label %52

51:                                               ; preds = %47
  store i32 -1, ptr %4, align 4
  br label %76

52:                                               ; preds = %50
  br label %53

53:                                               ; preds = %52, %46
  store i32 0, ptr %14, align 4
  store i32 0, ptr %15, align 4
  br label %54

54:                                               ; preds = %71, %53
  %55 = load i32, ptr %14, align 4
  %56 = load i32, ptr %6, align 4
  %57 = icmp slt i32 %55, %56
  br i1 %57, label %58, label %74

58:                                               ; preds = %54
  %59 = load ptr, ptr %13, align 8
  %60 = load ptr, ptr %5, align 8
  %61 = load i32, ptr %14, align 4
  %62 = sext i32 %61 to i64
  %63 = getelementptr inbounds i8, ptr %60, i64 %62
  %64 = load i8, ptr %63, align 1
  %65 = zext i8 %64 to i64
  %66 = getelementptr inbounds i8, ptr %59, i64 %65
  %67 = load i8, ptr %66, align 1
  %68 = zext i8 %67 to i32
  %69 = load i32, ptr %15, align 4
  %70 = add nsw i32 %69, %68
  store i32 %70, ptr %15, align 4
  br label %71

71:                                               ; preds = %58
  %72 = load i32, ptr %14, align 4
  %73 = add nsw i32 %72, 1
  store i32 %73, ptr %14, align 4
  br label %54, !llvm.loop !4

74:                                               ; preds = %54
  %75 = load i32, ptr %15, align 4
  store i32 %75, ptr %4, align 4
  br label %76

76:                                               ; preds = %74, %51, %39, %22
  %77 = load i32, ptr %4, align 4
  ret i32 %77

78:                                               ; preds = %31
  %79 = load ptr, ptr %11, align 8
  %80 = load i32, ptr %12, align 4
  %81 = insertvalue { ptr, i32 } poison, ptr %79, 0
  %82 = insertvalue { ptr, i32 } %81, i32 %80, 1
  resume { ptr, i32 } %82
}