; Function Attrs: mustprogress uwtable
define noundef i32 @_ZN2cv3hal11normHammingEPKhii(ptr noundef %0, i32 noundef %1, i32 noundef %2) local_unnamed_addr #0 personality ptr @__gxx_personality_v0 {
  switch i32 %2, label %.loopexit [
    i32 1, label %4
    i32 2, label %7
    i32 4, label %6
  ]

4:                                                ; preds = %3
  %5 = tail call noundef i32 @_ZN2cv3hal11normHammingEPKhi(ptr noundef %0, i32 noundef %1)
  br label %.loopexit

6:                                                ; preds = %3
  br label %7

7:                                                ; preds = %3, %6
  %.023 = phi ptr [ @_ZN2cv3halL14popCountTable4E, %6 ], [ @_ZN2cv3halL14popCountTable2E, %3 ]
  %8 = icmp sgt i32 %1, 0
  br i1 %8, label %.lr.ph.preheader, label %.loopexit

.lr.ph.preheader:                                 ; preds = %7
  %wide.trip.count = zext nneg i32 %1 to i64
  br label %.lr.ph

.lr.ph:                                           ; preds = %.lr.ph.preheader, %.lr.ph
  %indvars.iv = phi i64 [ 0, %.lr.ph.preheader ], [ %indvars.iv.next, %.lr.ph ]
  %.028 = phi i32 [ 0, %.lr.ph.preheader ], [ %15, %.lr.ph ]
  %9 = getelementptr inbounds nuw i8, ptr %0, i64 %indvars.iv
  %10 = load i8, ptr %9, align 1
  %11 = zext i8 %10 to i64
  %12 = getelementptr inbounds nuw i8, ptr %.023, i64 %11
  %13 = load i8, ptr %12, align 1
  %14 = zext i8 %13 to i32
  %15 = add nuw nsw i32 %.028, %14
  %indvars.iv.next = add nuw nsw i64 %indvars.iv, 1
  %exitcond.not = icmp eq i64 %indvars.iv.next, %wide.trip.count
  br i1 %exitcond.not, label %.loopexit, label %.lr.ph, !llvm.loop !4

.loopexit:                                        ; preds = %.lr.ph, %7, %3, %4
  %.024 = phi i32 [ %5, %4 ], [ -1, %3 ], [ 0, %7 ], [ %15, %.lr.ph ]
  ret i32 %.024
}